target datalayout = "e-m:e-p270:32:32-p271:32:32-p272:64:64-i64:64-i128:128-f80:128-n8:16:32:64-S128"
target triple = "x86_64-pc-linux-gnu"

%struct.tsi_handshaker_result = type { ptr }
%struct.tsi_handshaker_result_vtable = type { ptr, ptr, ptr, ptr, ptr, ptr }

; Function Attrs: mustprogress uwtable
define noundef i32 @_Z44tsi_handshaker_result_create_frame_protectorPK21tsi_handshaker_resultPmPP19tsi_frame_protector(ptr noundef %0, ptr noundef %1, ptr noundef %2) #5 {
  %4 = alloca i32, align 4
  %5 = alloca ptr, align 8
  %6 = alloca ptr, align 8
  %7 = alloca ptr, align 8
  store ptr %0, ptr %5, align 8, !tbaa !58
  store ptr %1, ptr %6, align 8, !tbaa !14
  store ptr %2, ptr %7, align 8, !tbaa !41
  %8 = load ptr, ptr %5, align 8, !tbaa !58
  %9 = icmp eq ptr %8, null
  br i1 %9, label %18, label %10

10:                                               ; preds = %3
  %11 = load ptr, ptr %5, align 8, !tbaa !58
  %12 = getelementptr inbounds nuw %struct.tsi_handshaker_result, ptr %11, i32 0, i32 0
  %13 = load ptr, ptr %12, align 8, !tbaa !60
  %14 = icmp eq ptr %13, null
  br i1 %14, label %18, label %15

15:                                               ; preds = %10
  %16 = load ptr, ptr %7, align 8, !tbaa !41
  %17 = icmp eq ptr %16, null
  br i1 %17, label %18, label %19

18:                                               ; preds = %15, %10, %3
  store i32 2, ptr %4, align 4
  br label %37

19:                                               ; preds = %15
  %20 = load ptr, ptr %5, align 8, !tbaa !58
  %21 = getelementptr inbounds nuw %struct.tsi_handshaker_result, ptr %20, i32 0, i32 0
  %22 = load ptr, ptr %21, align 8, !tbaa !60
  %23 = getelementptr inbounds nuw %struct.tsi_handshaker_result_vtable, ptr %22, i32 0, i32 3
  %24 = load ptr, ptr %23, align 8, !tbaa !66
  %25 = icmp eq ptr %24, null
  br i1 %25, label %26, label %27

26:                                               ; preds = %19
  store i32 6, ptr %4, align 4
  br label %37

27:                                               ; preds = %19
  %28 = load ptr, ptr %5, align 8, !tbaa !58
  %29 = getelementptr inbounds nuw %struct.tsi_handshaker_result, ptr %28, i32 0, i32 0
  %30 = load ptr, ptr %29, align 8, !tbaa !60
  %31 = getelementptr inbounds nuw %struct.tsi_handshaker_result_vtable, ptr %30, i32 0, i32 3
  %32 = load ptr, ptr %31, align 8, !tbaa !66
  %33 = load ptr, ptr %5, align 8, !tbaa !58
  %34 = load ptr, ptr %6, align 8, !tbaa !14
  %35 = load ptr, ptr %7, align 8, !tbaa !41
  %36 = call noundef i32 %32(ptr noundef %33, ptr noundef %34, ptr noundef %35)
  store i32 %36, ptr %4, align 4
  br label %37

37:                                               ; preds = %27, %26, %18
  %38 = load i32, ptr %4, align 4
  ret i32 %38
}