; Function Attrs: mustprogress uwtable
define noundef i32 @_Z44tsi_handshaker_result_create_frame_protectorPK21tsi_handshaker_resultPmPP19tsi_frame_protector(ptr noundef %0, ptr noundef %1, ptr noundef %2) local_unnamed_addr #4 {
  %4 = icmp eq ptr %0, null
  br i1 %4, label %15, label %5

5:                                                ; preds = %3
  %6 = load ptr, ptr %0, align 8, !tbaa !37
  %7 = icmp eq ptr %6, null
  %8 = icmp eq ptr %2, null
  %or.cond = or i1 %8, %7
  br i1 %or.cond, label %15, label %9

9:                                                ; preds = %5
  %10 = getelementptr inbounds nuw i8, ptr %6, i64 24
  %11 = load ptr, ptr %10, align 8, !tbaa !43
  %12 = icmp eq ptr %11, null
  br i1 %12, label %15, label %13

13:                                               ; preds = %9
  %14 = tail call noundef i32 %11(ptr noundef nonnull %0, ptr noundef %1, ptr noundef nonnull %2)
  br label %15

15:                                               ; preds = %9, %3, %5, %13
  %.0 = phi i32 [ %14, %13 ], [ 2, %5 ], [ 2, %3 ], [ 6, %9 ]
  ret i32 %.0
}